target datalayout = "e-m:e-p270:32:32-p271:32:32-p272:64:64-i64:64-i128:128-f80:128-n8:16:32:64-S128"
target triple = "x86_64-unknown-linux-gnu"

%"struct.google::SiteFlag" = type { ptr, ptr, i64, ptr }
%"class.std::__cxx11::basic_string" = type { %"struct.std::__cxx11::basic_string<char>::_Alloc_hider", i64, %union.anon }
%"struct.std::__cxx11::basic_string<char>::_Alloc_hider" = type { ptr }
%union.anon = type { i64, [8 x i8] }
%"class.proxygen::HTTPCodec" = type { ptr }
%"class.folly::Optional" = type { %"struct.folly::Optional<unsigned long>::StorageTriviallyDestructible" }
%"struct.folly::Optional<unsigned long>::StorageTriviallyDestructible" = type <{ %union.anon.15, i8, [7 x i8] }>
%union.anon.15 = type { i64 }
%"class.google::LogMessageVoidify" = type { i8 }
%"class.google::LogMessage" = type { ptr, ptr, %"struct.google::LogMessageTime" }
%"struct.google::LogMessageTime" = type { %struct.tm, i64, i32, i64 }
%struct.tm = type { i32, i32, i32, i32, i32, i32, i32, i32, i32, i64, ptr }
%"class.proxygen::HTTPParallelCodec" = type <{ %"class.proxygen::HTTPCodec", i8, [7 x i8], i64, i64, ptr, i64, i64, %"class.std::__cxx11::basic_string", i32, [4 x i8] }>
%"class.folly::ThreadLocalPRNG" = type { i8 }

@_ZN3fLI7FLAGS_vE = external global i32, align 4
@.str = private unnamed_addr constant [134 x i8] c"generated/home/dtcxzyw/WorkSpace/Projects/compilers/llvm-opt-benchmark/bench/proxygen/proxygen/proxygen/lib/http/codec/HTTP2Codec.cpp\00", align 1
@_ZZN8proxygen10HTTP2Codec19generatePingRequestERN5folly10IOBufQueueENS1_8OptionalImEEE8vlocal__ = internal global %"struct.google::SiteFlag" zeroinitializer, align 8
@.str.143 = private unnamed_addr constant [35 x i8] c"Generating ping request with data=\00", align 1

; Function Attrs: mustprogress uwtable
define linkonce_odr void @_ZNK5folly8OptionalImE13require_valueEv(ptr noundef nonnull align 8 dereferenceable(16) %this) #4 comdat align 2 {
entry:
  %this.addr = alloca ptr, align 8
  store ptr %this, ptr %this.addr, align 8
  %this1 = load ptr, ptr %this.addr, align 8
  %storage_ = getelementptr inbounds %"class.folly::Optional", ptr %this1, i32 0, i32 0
  %hasValue = getelementptr inbounds %"struct.folly::Optional<unsigned long>::StorageTriviallyDestructible", ptr %storage_, i32 0, i32 1
  %0 = load i8, ptr %hasValue, align 8
  %tobool = trunc i8 %0 to i1
  br i1 %tobool, label %if.end, label %if.then

if.then:                                          ; preds = %entry
  call void @_ZN5folly6detail16throw_exception_INS_22OptionalEmptyExceptionEJEEEvDpT0_() #24
  unreachable

_ZN5folly15throw_exceptionINS_22OptionalEmptyExceptionEJEEEvDpOT0_.exit: ; No predecessors!
  unreachable

if.end:                                           ; preds = %entry
  ret void
}

; Function Attrs: mustprogress nounwind uwtable
define linkonce_odr void @_ZN5folly8OptionalImE9constructIJmEEEvDpOT_(ptr noundef nonnull align 8 dereferenceable(16) %this, ptr noundef nonnull align 8 dereferenceable(8) %args) #5 comdat align 2 {
entry:
  %this.addr = alloca ptr, align 8
  %args.addr = alloca ptr, align 8
  %ptr = alloca ptr, align 8
  store ptr %this, ptr %this.addr, align 8
  store ptr %args, ptr %args.addr, align 8
  %this1 = load ptr, ptr %this.addr, align 8
  %storage_ = getelementptr inbounds %"class.folly::Optional", ptr %this1, i32 0, i32 0
  %0 = getelementptr inbounds %"struct.folly::Optional<unsigned long>::StorageTriviallyDestructible", ptr %storage_, i32 0, i32 0
  store ptr %0, ptr %ptr, align 8
  %1 = load ptr, ptr %ptr, align 8
  %2 = load ptr, ptr %args.addr, align 8
  %3 = load i64, ptr %2, align 8
  store i64 %3, ptr %1, align 8
  %storage_2 = getelementptr inbounds %"class.folly::Optional", ptr %this1, i32 0, i32 0
  %hasValue = getelementptr inbounds %"struct.folly::Optional<unsigned long>::StorageTriviallyDestructible", ptr %storage_2, i32 0, i32 1
  store i8 1, ptr %hasValue, align 8
  ret void
}

; Function Attrs: mustprogress nounwind uwtable
define linkonce_odr noundef zeroext i1 @_ZNK5folly8OptionalImE8hasValueEv(ptr noundef nonnull align 8 dereferenceable(16) %this) #5 comdat align 2 {
entry:
  %this.addr = alloca ptr, align 8
  store ptr %this, ptr %this.addr, align 8
  %this1 = load ptr, ptr %this.addr, align 8
  %call = call noundef zeroext i1 @_ZNK5folly8OptionalImE9has_valueEv(ptr noundef nonnull align 8 dereferenceable(16) %this1) #3
  ret i1 %call
}

; Function Attrs: mustprogress uwtable
define linkonce_odr noundef nonnull align 8 dereferenceable(8) ptr @_ZNR5folly8OptionalImE5valueEv(ptr noundef nonnull align 8 dereferenceable(16) %this) #4 comdat align 2 {
entry:
  %this.addr = alloca ptr, align 8
  store ptr %this, ptr %this.addr, align 8
  %this1 = load ptr, ptr %this.addr, align 8
  call void @_ZNK5folly8OptionalImE13require_valueEv(ptr noundef nonnull align 8 dereferenceable(16) %this1)
  %storage_ = getelementptr inbounds %"class.folly::Optional", ptr %this1, i32 0, i32 0
  %0 = getelementptr inbounds %"struct.folly::Optional<unsigned long>::StorageTriviallyDestructible", ptr %storage_, i32 0, i32 0
  ret ptr %0
}

; Function Attrs: mustprogress uwtable
define linkonce_odr void @_ZN5folly8OptionalImE6assignEOm(ptr noundef nonnull align 8 dereferenceable(16) %this, ptr noundef nonnull align 8 dereferenceable(8) %newValue) #4 comdat align 2 {
entry:
  %this.addr = alloca ptr, align 8
  %newValue.addr = alloca ptr, align 8
  store ptr %this, ptr %this.addr, align 8
  store ptr %newValue, ptr %newValue.addr, align 8
  %this1 = load ptr, ptr %this.addr, align 8
  %call = call noundef zeroext i1 @_ZNK5folly8OptionalImE8hasValueEv(ptr noundef nonnull align 8 dereferenceable(16) %this1) #3
  br i1 %call, label %if.then, label %if.else

if.then:                                          ; preds = %entry
  %0 = load ptr, ptr %newValue.addr, align 8
  %1 = load i64, ptr %0, align 8
  %storage_ = getelementptr inbounds %"class.folly::Optional", ptr %this1, i32 0, i32 0
  %2 = getelementptr inbounds %"struct.folly::Optional<unsigned long>::StorageTriviallyDestructible", ptr %storage_, i32 0, i32 0
  store i64 %1, ptr %2, align 8
  br label %if.end

if.else:                                          ; preds = %entry
  %3 = load ptr, ptr %newValue.addr, align 8
  call void @_ZN5folly8OptionalImE9constructIJmEEEvDpOT_(ptr noundef nonnull align 8 dereferenceable(16) %this1, ptr noundef nonnull align 8 dereferenceable(8) %3)
  br label %if.end

if.end:                                           ; preds = %if.else, %if.then
  ret void
}

; Function Attrs: mustprogress uwtable
define linkonce_odr noundef i64 @_ZN5folly6Random6rand64INS_15ThreadLocalPRNGES2_EEmOT_(ptr noundef nonnull align 1 dereferenceable(1) %rng) #4 comdat align 2 {
entry:
  %rng.addr = alloca ptr, align 8
  store ptr %rng, ptr %rng.addr, align 8
  %0 = load ptr, ptr %rng.addr, align 8
  %call = call noundef i32 @_ZN5folly15ThreadLocalPRNGclEv(ptr noundef nonnull align 1 dereferenceable(1) %0)
  %conv = zext i32 %call to i64
  %shl = shl i64 %conv, 32
  %1 = load ptr, ptr %rng.addr, align 8
  %call1 = call noundef i32 @_ZN5folly15ThreadLocalPRNGclEv(ptr noundef nonnull align 1 dereferenceable(1) %1)
  %conv2 = zext i32 %call1 to i64
  %or = or i64 %shl, %conv2
  ret i64 %or
}

; Function Attrs: mustprogress uwtable
define noundef i64 @_ZN8proxygen10HTTP2Codec29generateHeaderCallbackWrapperEmNS_5http29FrameTypeEm(ptr noundef nonnull align 8 dereferenceable(1062) %this, i64 noundef %stream, i8 noundef zeroext %type, i64 noundef %length) #4 align 2 {
entry:
  %this.addr = alloca ptr, align 8
  %stream.addr = alloca i64, align 8
  %type.addr = alloca i8, align 1
  %length.addr = alloca i64, align 8
  store ptr %this, ptr %this.addr, align 8
  store i64 %stream, ptr %stream.addr, align 8
  store i8 %type, ptr %type.addr, align 1
  store i64 %length, ptr %length.addr, align 8
  %this1 = load ptr, ptr %this.addr, align 8
  %callback_ = getelementptr inbounds %"class.proxygen::HTTPParallelCodec", ptr %this1, i32 0, i32 5
  %0 = load ptr, ptr %callback_, align 8
  %tobool = icmp ne ptr %0, null
  br i1 %tobool, label %if.then, label %if.end

if.then:                                          ; preds = %entry
  %callback_2 = getelementptr inbounds %"class.proxygen::HTTPParallelCodec", ptr %this1, i32 0, i32 5
  %1 = load ptr, ptr %callback_2, align 8
  %2 = load i64, ptr %stream.addr, align 8
  %3 = load i8, ptr %type.addr, align 1
  %4 = load i64, ptr %length.addr, align 8
  %vtable = load ptr, ptr %1, align 8
  %vfn = getelementptr inbounds ptr, ptr %vtable, i64 23
  %5 = load ptr, ptr %vfn, align 8
  call void %5(ptr noundef nonnull align 8 dereferenceable(8) %1, i64 noundef %2, i8 noundef zeroext %3, i64 noundef %4, i16 noundef zeroext 0)
  br label %if.end

if.end:                                           ; preds = %if.then, %entry
  %6 = load i64, ptr %length.addr, align 8
  ret i64 %6
}

; Function Attrs: mustprogress nounwind uwtable
define linkonce_odr void @_ZN6google17LogMessageVoidifyanERSo(ptr noundef nonnull align 1 dereferenceable(1) %this, ptr noundef nonnull align 8 dereferenceable(8) %0) #5 comdat align 2 {
entry:
  %this.addr = alloca ptr, align 8
  %.addr = alloca ptr, align 8
  store ptr %this, ptr %this.addr, align 8
  store ptr %0, ptr %.addr, align 8
  ret void
}

; Function Attrs: mustprogress uwtable
define linkonce_odr noundef nonnull align 8 dereferenceable(8) ptr @_ZNR5folly8OptionalImEdeEv(ptr noundef nonnull align 8 dereferenceable(16) %this) #4 comdat align 2 {
entry:
  %this.addr = alloca ptr, align 8
  store ptr %this, ptr %this.addr, align 8
  %this1 = load ptr, ptr %this.addr, align 8
  %call = call noundef nonnull align 8 dereferenceable(8) ptr @_ZNR5folly8OptionalImE5valueEv(ptr noundef nonnull align 8 dereferenceable(16) %this1)
  ret ptr %call
}

; Function Attrs: mustprogress nounwind uwtable
define linkonce_odr void @_ZN6google17LogMessageVoidifyC2Ev(ptr noundef nonnull align 1 dereferenceable(1) %this) unnamed_addr #5 comdat align 2 {
entry:
  %this.addr = alloca ptr, align 8
  store ptr %this, ptr %this.addr, align 8
  ret void
}

; Function Attrs: mustprogress uwtable
define linkonce_odr noundef nonnull align 8 dereferenceable(16) ptr @_ZN5folly8OptionalImEaSImEERS1_OT_(ptr noundef nonnull align 8 dereferenceable(16) %this, ptr noundef nonnull align 8 dereferenceable(8) %arg) #4 comdat align 2 {
entry:
  %this.addr = alloca ptr, align 8
  %arg.addr = alloca ptr, align 8
  store ptr %this, ptr %this.addr, align 8
  store ptr %arg, ptr %arg.addr, align 8
  %this1 = load ptr, ptr %this.addr, align 8
  %0 = load ptr, ptr %arg.addr, align 8
  call void @_ZN5folly8OptionalImE6assignEOm(ptr noundef nonnull align 8 dereferenceable(16) %this1, ptr noundef nonnull align 8 dereferenceable(8) %0)
  ret ptr %this1
}

; Function Attrs: mustprogress uwtable
define linkonce_odr noundef i64 @_ZN5folly6Random6rand64Ev() #4 comdat align 2 {
entry:
  %ref.tmp = alloca %"class.folly::ThreadLocalPRNG", align 1
  %call = call noundef i64 @_ZN5folly6Random6rand64INS_15ThreadLocalPRNGES2_EEmOT_(ptr noundef nonnull align 1 dereferenceable(1) %ref.tmp)
  ret i64 %call
}

; Function Attrs: mustprogress nounwind uwtable
define linkonce_odr noundef zeroext i1 @_ZNK5folly8OptionalImE9has_valueEv(ptr noundef nonnull align 8 dereferenceable(16) %this) #5 comdat align 2 {
entry:
  %this.addr = alloca ptr, align 8
  store ptr %this, ptr %this.addr, align 8
  %this1 = load ptr, ptr %this.addr, align 8
  %storage_ = getelementptr inbounds %"class.folly::Optional", ptr %this1, i32 0, i32 0
  %hasValue = getelementptr inbounds %"struct.folly::Optional<unsigned long>::StorageTriviallyDestructible", ptr %storage_, i32 0, i32 1
  %0 = load i8, ptr %hasValue, align 8
  %tobool = trunc i8 %0 to i1
  ret i1 %tobool
}

; Function Attrs: mustprogress uwtable
define noundef i64 @_ZN8proxygen10HTTP2Codec19generatePingRequestERN5folly10IOBufQueueENS1_8OptionalImEE(ptr noundef nonnull align 8 dereferenceable(1062) %this, ptr noundef nonnull align 8 dereferenceable(72) %writeBuf, ptr noundef %data) unnamed_addr #4 align 2 personality ptr @__gxx_personality_v0 {
entry:
  %this.addr = alloca ptr, align 8
  %writeBuf.addr = alloca ptr, align 8
  %data.indirect_addr = alloca ptr, align 8
  %ref.tmp = alloca i64, align 8
  %verbose_level__ = alloca i32, align 4
  %tmp = alloca i8, align 1
  %ref.tmp8 = alloca %"class.google::LogMessageVoidify", align 1
  %ref.tmp9 = alloca %"class.google::LogMessage", align 8
  %cleanup.cond = alloca i1, align 1
  %exn.slot = alloca ptr, align 8
  %ehselector.slot = alloca i32, align 4
  store ptr %this, ptr %this.addr, align 8
  store ptr %writeBuf, ptr %writeBuf.addr, align 8
  store ptr %data, ptr %data.indirect_addr, align 8
  %this1 = load ptr, ptr %this.addr, align 8
  %call = call noundef zeroext i1 @_ZNK5folly8OptionalImE9has_valueEv(ptr noundef nonnull align 8 dereferenceable(16) %data) #3
  br i1 %call, label %if.end, label %if.then

if.then:                                          ; preds = %entry
  %call2 = call noundef i64 @_ZN5folly6Random6rand64Ev()
  store i64 %call2, ptr %ref.tmp, align 8
  %call3 = call noundef nonnull align 8 dereferenceable(16) ptr @_ZN5folly8OptionalImEaSImEERS1_OT_(ptr noundef nonnull align 8 dereferenceable(16) %data, ptr noundef nonnull align 8 dereferenceable(8) %ref.tmp)
  br label %if.end

if.end:                                           ; preds = %if.then, %entry
  store i32 4, ptr %verbose_level__, align 4
  %0 = load ptr, ptr @_ZZN8proxygen10HTTP2Codec19generatePingRequestERN5folly10IOBufQueueENS1_8OptionalImEEE8vlocal__, align 8
  %cmp = icmp eq ptr %0, null
  store i1 false, ptr %cleanup.cond, align 1
  br i1 %cmp, label %cond.true, label %cond.false

cond.true:                                        ; preds = %if.end
  %1 = load i32, ptr %verbose_level__, align 4
  %call4 = call noundef zeroext i1 @_ZN6google11InitVLOG3__EPNS_8SiteFlagEPiPKci(ptr noundef @_ZZN8proxygen10HTTP2Codec19generatePingRequestERN5folly10IOBufQueueENS1_8OptionalImEEE8vlocal__, ptr noundef @_ZN3fLI7FLAGS_vE, ptr noundef @.str, i32 noundef %1)
  br label %cond.end

cond.false:                                       ; preds = %if.end
  %2 = load ptr, ptr @_ZZN8proxygen10HTTP2Codec19generatePingRequestERN5folly10IOBufQueueENS1_8OptionalImEEE8vlocal__, align 8
  %3 = load i32, ptr %2, align 4
  %4 = load i32, ptr %verbose_level__, align 4
  %cmp5 = icmp sge i32 %3, %4
  br label %cond.end

cond.end:                                         ; preds = %cond.false, %cond.true
  %cond = phi i1 [ %call4, %cond.true ], [ %cmp5, %cond.false ]
  %frombool = zext i1 %cond to i8
  store i8 %frombool, ptr %tmp, align 1
  %5 = load i8, ptr %tmp, align 1
  %tobool = trunc i8 %5 to i1
  br i1 %tobool, label %cond.false7, label %cond.true6

cond.true6:                                       ; preds = %cond.end
  br label %cond.end18

cond.false7:                                      ; preds = %cond.end
  call void @_ZN6google17LogMessageVoidifyC2Ev(ptr noundef nonnull align 1 dereferenceable(1) %ref.tmp8)
  call void @_ZN6google10LogMessageC1EPKci(ptr noundef nonnull align 8 dereferenceable(96) %ref.tmp9, ptr noundef @.str, i32 noundef 1615)
  store i1 true, ptr %cleanup.cond, align 1
  %call10 = invoke noundef nonnull align 8 dereferenceable(8) ptr @_ZN6google10LogMessage6streamEv(ptr noundef nonnull align 8 dereferenceable(96) %ref.tmp9)
          to label %invoke.cont unwind label %lpad

invoke.cont:                                      ; preds = %cond.false7
  %call12 = invoke noundef nonnull align 8 dereferenceable(8) ptr @_ZStlsISt11char_traitsIcEERSt13basic_ostreamIcT_ES5_PKc(ptr noundef nonnull align 8 dereferenceable(8) %call10, ptr noundef @.str.143)
          to label %invoke.cont11 unwind label %lpad

invoke.cont11:                                    ; preds = %invoke.cont
  %call14 = invoke noundef nonnull align 8 dereferenceable(8) ptr @_ZNR5folly8OptionalImEdeEv(ptr noundef nonnull align 8 dereferenceable(16) %data)
          to label %invoke.cont13 unwind label %lpad

invoke.cont13:                                    ; preds = %invoke.cont11
  %6 = load i64, ptr %call14, align 8
  %call16 = invoke noundef nonnull align 8 dereferenceable(8) ptr @_ZNSolsEm(ptr noundef nonnull align 8 dereferenceable(8) %call12, i64 noundef %6)
          to label %invoke.cont15 unwind label %lpad

invoke.cont15:                                    ; preds = %invoke.cont13
  invoke void @_ZN6google17LogMessageVoidifyanERSo(ptr noundef nonnull align 1 dereferenceable(1) %ref.tmp8, ptr noundef nonnull align 8 dereferenceable(8) %call16)
          to label %invoke.cont17 unwind label %lpad

invoke.cont17:                                    ; preds = %invoke.cont15
  br label %cond.end18

cond.end18:                                       ; preds = %invoke.cont17, %cond.true6
  %cleanup.is_active = load i1, ptr %cleanup.cond, align 1
  br i1 %cleanup.is_active, label %cleanup.action, label %cleanup.done

cleanup.action:                                   ; preds = %cond.end18
  call void @_ZN6google10LogMessageD1Ev(ptr noundef nonnull align 8 dereferenceable(96) %ref.tmp9) #3
  br label %cleanup.done

cleanup.done:                                     ; preds = %cleanup.action, %cond.end18
  %7 = load ptr, ptr %writeBuf.addr, align 8
  %call22 = call noundef nonnull align 8 dereferenceable(8) ptr @_ZNR5folly8OptionalImEdeEv(ptr noundef nonnull align 8 dereferenceable(16) %data)
  %8 = load i64, ptr %call22, align 8
  %call23 = call noundef i64 @_ZN8proxygen5http29writePingERN5folly10IOBufQueueEmb(ptr noundef nonnull align 8 dereferenceable(72) %7, i64 noundef %8, i1 noundef zeroext false) #3
  %call24 = call noundef i64 @_ZN8proxygen10HTTP2Codec29generateHeaderCallbackWrapperEmNS_5http29FrameTypeEm(ptr noundef nonnull align 8 dereferenceable(1062) %this1, i64 noundef 0, i8 noundef zeroext 6, i64 noundef %call23)
  ret i64 %call24

lpad:                                             ; preds = %invoke.cont15, %invoke.cont13, %invoke.cont11, %invoke.cont, %cond.false7
  %9 = landingpad { ptr, i32 }
          cleanup
  %10 = extractvalue { ptr, i32 } %9, 0
  store ptr %10, ptr %exn.slot, align 8
  %11 = extractvalue { ptr, i32 } %9, 1
  store i32 %11, ptr %ehselector.slot, align 4
  %cleanup.is_active19 = load i1, ptr %cleanup.cond, align 1
  br i1 %cleanup.is_active19, label %cleanup.action20, label %cleanup.done21

cleanup.action20:                                 ; preds = %lpad
  call void @_ZN6google10LogMessageD1Ev(ptr noundef nonnull align 8 dereferenceable(96) %ref.tmp9) #3
  br label %cleanup.done21

cleanup.done21:                                   ; preds = %cleanup.action20, %lpad
  br label %eh.resume

eh.resume:                                        ; preds = %cleanup.done21
  %exn = load ptr, ptr %exn.slot, align 8
  %sel = load i32, ptr %ehselector.slot, align 4
  %lpad.val = insertvalue { ptr, i32 } poison, ptr %exn, 0
  %lpad.val25 = insertvalue { ptr, i32 } %lpad.val, i32 %sel, 1
  resume { ptr, i32 } %lpad.val25
}