; Function Attrs: mustprogress uwtable
define noundef i64 @_ZN8proxygen10HTTP2Codec19generatePingRequestERN5folly10IOBufQueueENS1_8OptionalImEE(ptr nocapture noundef nonnull readonly align 8 dereferenceable(1062) %this, ptr noundef nonnull align 8 dereferenceable(72) %writeBuf, ptr nocapture noundef %data) unnamed_addr #3 align 2 personality ptr @__gxx_personality_v0 {
entry:
  %ref.tmp.i = alloca %"class.folly::ThreadLocalPRNG", align 1
  %ref.tmp9 = alloca %"class.google::LogMessage", align 8
  %hasValue.i = getelementptr inbounds i8, ptr %data, i64 8
  %0 = load i8, ptr %hasValue.i, align 8
  %1 = and i8 %0, 1
  %tobool.i.not = icmp eq i8 %1, 0
  br i1 %tobool.i.not, label %if.then, label %if.end

if.then:                                          ; preds = %entry
  call void @llvm.lifetime.start.p0(i64 1, ptr nonnull %ref.tmp.i)
  %call.i.i = call noundef i32 @_ZN5folly15ThreadLocalPRNGclEv(ptr noundef nonnull align 1 dereferenceable(1) %ref.tmp.i)
  %conv.i.i = zext i32 %call.i.i to i64
  %shl.i.i = shl nuw i64 %conv.i.i, 32
  %call1.i.i = call noundef i32 @_ZN5folly15ThreadLocalPRNGclEv(ptr noundef nonnull align 1 dereferenceable(1) %ref.tmp.i)
  %conv2.i.i = zext i32 %call1.i.i to i64
  %or.i.i = or disjoint i64 %shl.i.i, %conv2.i.i
  call void @llvm.lifetime.end.p0(i64 1, ptr nonnull %ref.tmp.i)
  %2 = load i8, ptr %hasValue.i, align 8
  %3 = and i8 %2, 1
  %tobool.i.i.not.i.i = icmp eq i8 %3, 0
  br i1 %tobool.i.i.not.i.i, label %if.else.i.i, label %_ZN5folly8OptionalImEaSImEERS1_OT_.exit

if.else.i.i:                                      ; preds = %if.then
  store i8 1, ptr %hasValue.i, align 8
  br label %_ZN5folly8OptionalImEaSImEERS1_OT_.exit

_ZN5folly8OptionalImEaSImEERS1_OT_.exit:          ; preds = %if.then, %if.else.i.i
  store i64 %or.i.i, ptr %data, align 8
  br label %if.end

if.end:                                           ; preds = %_ZN5folly8OptionalImEaSImEERS1_OT_.exit, %entry
  %4 = load ptr, ptr @_ZZN8proxygen10HTTP2Codec19generatePingRequestERN5folly10IOBufQueueENS1_8OptionalImEEE8vlocal__, align 8
  %cmp = icmp eq ptr %4, null
  br i1 %cmp, label %cond.true, label %cond.end

cond.true:                                        ; preds = %if.end
  %call4 = call noundef zeroext i1 @_ZN6google11InitVLOG3__EPNS_8SiteFlagEPiPKci(ptr noundef nonnull @_ZZN8proxygen10HTTP2Codec19generatePingRequestERN5folly10IOBufQueueENS1_8OptionalImEEE8vlocal__, ptr noundef nonnull @_ZN3fLI7FLAGS_vE, ptr noundef nonnull @.str, i32 noundef 4)
  br i1 %call4, label %cond.false7, label %cleanup.done

cond.end:                                         ; preds = %if.end
  %5 = load i32, ptr %4, align 4
  %cmp5 = icmp sgt i32 %5, 3
  br i1 %cmp5, label %cond.false7, label %cleanup.done

cond.false7:                                      ; preds = %cond.true, %cond.end
  call void @_ZN6google10LogMessageC1EPKci(ptr noundef nonnull align 8 dereferenceable(96) %ref.tmp9, ptr noundef nonnull @.str, i32 noundef 1615)
  %call10 = invoke noundef nonnull align 8 dereferenceable(8) ptr @_ZN6google10LogMessage6streamEv(ptr noundef nonnull align 8 dereferenceable(96) %ref.tmp9)
          to label %invoke.cont unwind label %lpad

invoke.cont:                                      ; preds = %cond.false7
  %call12 = invoke noundef nonnull align 8 dereferenceable(8) ptr @_ZStlsISt11char_traitsIcEERSt13basic_ostreamIcT_ES5_PKc(ptr noundef nonnull align 8 dereferenceable(8) %call10, ptr noundef nonnull @.str.143)
          to label %invoke.cont11 unwind label %lpad

invoke.cont11:                                    ; preds = %invoke.cont
  %6 = load i8, ptr %hasValue.i, align 8
  %7 = and i8 %6, 1
  %tobool.not.i.i.i = icmp eq i8 %7, 0
  br i1 %tobool.not.i.i.i, label %if.then.i.i.i, label %invoke.cont13

if.then.i.i.i:                                    ; preds = %invoke.cont11
  invoke void @_ZN5folly6detail16throw_exception_INS_22OptionalEmptyExceptionEJEEEvDpT0_() #28
          to label %.noexc unwind label %lpad

.noexc:                                           ; preds = %if.then.i.i.i
  unreachable

invoke.cont13:                                    ; preds = %invoke.cont11
  %8 = load i64, ptr %data, align 8
  %call16 = invoke noundef nonnull align 8 dereferenceable(8) ptr @_ZNSolsEm(ptr noundef nonnull align 8 dereferenceable(8) %call12, i64 noundef %8)
          to label %cleanup.action unwind label %lpad

cleanup.action:                                   ; preds = %invoke.cont13
  call void @_ZN6google10LogMessageD1Ev(ptr noundef nonnull align 8 dereferenceable(96) %ref.tmp9) #27
  br label %cleanup.done

cleanup.done:                                     ; preds = %cond.true, %cond.end, %cleanup.action
  %9 = load i8, ptr %hasValue.i, align 8
  %10 = and i8 %9, 1
  %tobool.not.i.i.i3 = icmp eq i8 %10, 0
  br i1 %tobool.not.i.i.i3, label %if.then.i.i.i4, label %_ZNR5folly8OptionalImEdeEv.exit5

if.then.i.i.i4:                                   ; preds = %cleanup.done
  call void @_ZN5folly6detail16throw_exception_INS_22OptionalEmptyExceptionEJEEEvDpT0_() #28
  unreachable

_ZNR5folly8OptionalImEdeEv.exit5:                 ; preds = %cleanup.done
  %11 = load i64, ptr %data, align 8
  %call23 = call noundef i64 @_ZN8proxygen5http29writePingERN5folly10IOBufQueueEmb(ptr noundef nonnull align 8 dereferenceable(72) %writeBuf, i64 noundef %11, i1 noundef zeroext false) #27
  %callback_.i = getelementptr inbounds i8, ptr %this, i64 32
  %12 = load ptr, ptr %callback_.i, align 8
  %tobool.not.i = icmp eq ptr %12, null
  br i1 %tobool.not.i, label %_ZN8proxygen10HTTP2Codec29generateHeaderCallbackWrapperEmNS_5http29FrameTypeEm.exit, label %if.then.i

if.then.i:                                        ; preds = %_ZNR5folly8OptionalImEdeEv.exit5
  %vtable.i = load ptr, ptr %12, align 8
  %vfn.i = getelementptr inbounds i8, ptr %vtable.i, i64 184
  %13 = load ptr, ptr %vfn.i, align 8
  call void %13(ptr noundef nonnull align 8 dereferenceable(8) %12, i64 noundef 0, i8 noundef zeroext 6, i64 noundef %call23, i16 noundef zeroext 0)
  br label %_ZN8proxygen10HTTP2Codec29generateHeaderCallbackWrapperEmNS_5http29FrameTypeEm.exit

_ZN8proxygen10HTTP2Codec29generateHeaderCallbackWrapperEmNS_5http29FrameTypeEm.exit: ; preds = %_ZNR5folly8OptionalImEdeEv.exit5, %if.then.i
  ret i64 %call23

lpad:                                             ; preds = %if.then.i.i.i, %invoke.cont13, %invoke.cont, %cond.false7
  %14 = landingpad { ptr, i32 }
          cleanup
  call void @_ZN6google10LogMessageD1Ev(ptr noundef nonnull align 8 dereferenceable(96) %ref.tmp9) #27
  resume { ptr, i32 } %14
}